; ModuleID = 'source-C-CXX/14/1240.c'
source_filename = "source-C-CXX/14/1240.c"
target datalayout = "e-m:e-p270:32:32-p271:32:32-p272:64:64-i64:64-f80:128-n8:16:32:64-S128"
target triple = "x86_64-pc-linux-gnu"

@.str = private unnamed_addr constant [3 x i8] c"%d\00", align 1
@.str.1 = private unnamed_addr constant [4 x i8] c"%d\0A\00", align 1

; Function Attrs: nofree nounwind sspstrong uwtable
define dso_local i32 @main() local_unnamed_addr #0 {
  %1 = alloca i32, align 4
  %2 = alloca [500 x [500 x i32]], align 16
  %3 = bitcast i32* %1 to i8*
  call void @llvm.lifetime.start.p0i8(i64 4, i8* nonnull %3) #3
  %4 = bitcast [500 x [500 x i32]]* %2 to i8*
  call void @llvm.lifetime.start.p0i8(i64 1000000, i8* nonnull %4) #3
  %5 = call i32 (i8*, ...) @__isoc99_scanf(i8* getelementptr inbounds ([3 x i8], [3 x i8]* @.str, i64 0, i64 0), i32* nonnull %1)
  %6 = load i32, i32* %1, align 4, !tbaa !5
  %7 = icmp sgt i32 %6, 0
  br i1 %7, label %8, label %72

8:                                                ; preds = %0, %37
  %9 = phi i32 [ %38, %37 ], [ %6, %0 ]
  %10 = phi i64 [ %40, %37 ], [ 0, %0 ]
  %11 = icmp sgt i32 %9, 0
  br i1 %11, label %29, label %37

12:                                               ; preds = %37
  %13 = icmp sgt i32 %38, 0
  br i1 %13, label %14, label %72

14:                                               ; preds = %12
  %15 = zext i32 %38 to i64
  br label %16

16:                                               ; preds = %14, %26
  %17 = phi i64 [ 0, %14 ], [ %27, %26 ]
  br label %18

18:                                               ; preds = %16, %23
  %19 = phi i64 [ 0, %16 ], [ %24, %23 ]
  %20 = getelementptr inbounds [500 x [500 x i32]], [500 x [500 x i32]]* %2, i64 0, i64 %17, i64 %19
  %21 = load i32, i32* %20, align 4, !tbaa !5
  %22 = icmp eq i32 %21, 0
  br i1 %22, label %42, label %23

23:                                               ; preds = %18
  %24 = add nuw nsw i64 %19, 1
  %25 = icmp eq i64 %24, %15
  br i1 %25, label %26, label %18, !llvm.loop !9

26:                                               ; preds = %23
  %27 = add nuw nsw i64 %17, 1
  %28 = icmp eq i64 %27, %15
  br i1 %28, label %47, label %16, !llvm.loop !11

29:                                               ; preds = %8, %29
  %30 = phi i64 [ %33, %29 ], [ 0, %8 ]
  %31 = getelementptr inbounds [500 x [500 x i32]], [500 x [500 x i32]]* %2, i64 0, i64 %10, i64 %30
  %32 = call i32 (i8*, ...) @__isoc99_scanf(i8* getelementptr inbounds ([3 x i8], [3 x i8]* @.str, i64 0, i64 0), i32* nonnull %31)
  %33 = add nuw nsw i64 %30, 1
  %34 = load i32, i32* %1, align 4, !tbaa !5
  %35 = sext i32 %34 to i64
  %36 = icmp slt i64 %33, %35
  br i1 %36, label %29, label %37, !llvm.loop !12

37:                                               ; preds = %29, %8
  %38 = phi i32 [ %9, %8 ], [ %34, %29 ]
  %39 = sext i32 %38 to i64
  %40 = add nuw nsw i64 %10, 1
  %41 = icmp slt i64 %40, %39
  br i1 %41, label %8, label %12, !llvm.loop !13

42:                                               ; preds = %18
  %43 = trunc i64 %17 to i32
  %44 = trunc i64 %19 to i32
  %45 = xor i32 %44, -1
  %46 = xor i32 %43, -1
  br label %47

47:                                               ; preds = %26, %42
  %48 = phi i32 [ %45, %42 ], [ 0, %26 ]
  %49 = phi i32 [ %46, %42 ], [ 0, %26 ]
  %50 = icmp sgt i32 %38, 1
  br i1 %50, label %51, label %72

51:                                               ; preds = %47
  %52 = zext i32 %38 to i64
  %53 = zext i32 %38 to i64
  br label %56

54:                                               ; preds = %59
  %55 = icmp sgt i64 %57, 2
  br i1 %55, label %56, label %72

56:                                               ; preds = %51, %54
  %57 = phi i64 [ %53, %51 ], [ %58, %54 ]
  %58 = add nsw i64 %57, -1
  br label %59

59:                                               ; preds = %56, %64
  %60 = phi i64 [ %52, %56 ], [ %69, %64 ]
  %61 = phi i32 [ %38, %56 ], [ %62, %64 ]
  %62 = add nsw i32 %61, -1
  %63 = icmp sgt i64 %60, 1
  br i1 %63, label %64, label %54

64:                                               ; preds = %59
  %65 = zext i32 %62 to i64
  %66 = getelementptr inbounds [500 x [500 x i32]], [500 x [500 x i32]]* %2, i64 0, i64 %58, i64 %65
  %67 = load i32, i32* %66, align 4, !tbaa !5
  %68 = icmp eq i32 %67, 0
  %69 = add nsw i64 %60, -1
  br i1 %68, label %70, label %59, !llvm.loop !15

70:                                               ; preds = %64
  %71 = trunc i64 %58 to i32
  br label %72

72:                                               ; preds = %54, %0, %12, %70, %47
  %73 = phi i32 [ %49, %47 ], [ %49, %70 ], [ 0, %12 ], [ 0, %0 ], [ %49, %54 ]
  %74 = phi i32 [ %48, %47 ], [ %48, %70 ], [ 0, %12 ], [ 0, %0 ], [ %48, %54 ]
  %75 = phi i32 [ -1, %47 ], [ %62, %70 ], [ -1, %12 ], [ -1, %0 ], [ -1, %54 ]
  %76 = phi i32 [ -1, %47 ], [ %71, %70 ], [ -1, %12 ], [ -1, %0 ], [ -1, %54 ]
  %77 = add i32 %75, %74
  %78 = add i32 %76, %73
  %79 = mul nsw i32 %78, %77
  %80 = call i32 (i8*, ...) @printf(i8* nonnull dereferenceable(1) getelementptr inbounds ([4 x i8], [4 x i8]* @.str.1, i64 0, i64 0), i32 %79)
  call void @llvm.lifetime.end.p0i8(i64 1000000, i8* nonnull %4) #3
  call void @llvm.lifetime.end.p0i8(i64 4, i8* nonnull %3) #3
  ret i32 0
}

; Function Attrs: argmemonly mustprogress nofree nosync nounwind willreturn
declare void @llvm.lifetime.start.p0i8(i64 immarg, i8* nocapture) #1

; Function Attrs: nofree nounwind
declare noundef i32 @__isoc99_scanf(i8* nocapture noundef readonly, ...) local_unnamed_addr #2

; Function Attrs: nofree nounwind
declare noundef i32 @printf(i8* nocapture noundef readonly, ...) local_unnamed_addr #2

; Function Attrs: argmemonly mustprogress nofree nosync nounwind willreturn
declare void @llvm.lifetime.end.p0i8(i64 immarg, i8* nocapture) #1


!llvm.module.flags = !{!0, !1, !2, !3}
!llvm.ident = !{!4}

!0 = !{i32 1, !"wchar_size", i32 4}
!1 = !{i32 7, !"PIC Level", i32 2}
!2 = !{i32 7, !"PIE Level", i32 2}
!3 = !{i32 7, !"uwtable", i32 1}
!4 = !{!"clang version 13.0.0"}
!5 = !{!6, !6, i64 0}
!6 = !{!"int", !7, i64 0}
!7 = !{!"omnipotent char", !8, i64 0}
!8 = !{!"Simple C/C++ TBAA"}
!9 = distinct !{!9, !10}
!10 = !{!"llvm.loop.mustprogress"}
!11 = distinct !{!11, !10}
!12 = distinct !{!12, !10}
!13 = distinct !{!13, !10, !14}
!14 = !{!"llvm.loop.unswitch.partial.disable"}
!15 = distinct !{!15, !10}
